; Function Attrs: mustprogress nofree norecurse nosync nounwind willreturn memory(readwrite, inaccessiblemem: none) uwtable
define internal noundef i32 @f(double %0, ptr noundef readonly captures(none) %1, ptr noundef readonly captures(none) %2, ptr readnone captures(none) %3) #4 {
  %5 = load ptr, ptr %1, align 8, !tbaa !12
  %6 = getelementptr inbounds nuw i8, ptr %5, i64 16
  %7 = load ptr, ptr %6, align 8, !tbaa !15
  %8 = load double, ptr %7, align 8, !tbaa !20
  %9 = getelementptr inbounds nuw i8, ptr %7, i64 8
  %10 = load double, ptr %9, align 8, !tbaa !20
  %11 = getelementptr inbounds nuw i8, ptr %7, i64 16
  %12 = load double, ptr %11, align 8, !tbaa !20
  %13 = fmul double %10, 1.000000e+04
  %14 = fmul double %13, %12
  %15 = tail call double @llvm.fmuladd.f64(double %8, double -4.000000e-02, double %14)
  %16 = load ptr, ptr %2, align 8, !tbaa !12
  %17 = getelementptr inbounds nuw i8, ptr %16, i64 16
  %18 = load ptr, ptr %17, align 8, !tbaa !15
  store double %15, ptr %18, align 8, !tbaa !20
  %19 = fneg double %14
  %20 = tail call double @llvm.fmuladd.f64(double %8, double 4.000000e-02, double %19)
  %21 = fmul double %10, 3.000000e+07
  %22 = fneg double %21
  %23 = tail call double @llvm.fmuladd.f64(double %22, double %10, double %20)
  %24 = getelementptr inbounds nuw i8, ptr %18, i64 8
  store double %23, ptr %24, align 8, !tbaa !20
  %25 = fmul double %10, %21
  %26 = getelementptr inbounds nuw i8, ptr %18, i64 16
  store double %25, ptr %26, align 8, !tbaa !20
  ret i32 0
}